target datalayout = "e-m:e-p270:32:32-p271:32:32-p272:64:64-i64:64-i128:128-f80:128-n8:16:32:64-S128"
target triple = "x86_64-pc-linux-gnu"

%struct.JsonIsPredicate = type { i32, ptr, ptr, i32, i8, i32 }

@.str.41 = private unnamed_addr constant [13 x i8] c"parse_expr.c\00", align 1
@.str.155 = private unnamed_addr constant [40 x i8] c"cannot use type %s in IS JSON predicate\00", align 1
@__func__.transformJsonIsPredicate = private unnamed_addr constant [25 x i8] c"transformJsonIsPredicate\00", align 1

; Function Attrs: nounwind uwtable
define internal ptr @transformJsonIsPredicate(ptr noundef %0, ptr noundef %1) #0 {
  %3 = alloca ptr, align 8
  %4 = alloca ptr, align 8
  %5 = alloca i32, align 4
  %6 = alloca ptr, align 8
  store ptr %0, ptr %3, align 8
  store ptr %1, ptr %4, align 8
  call void @llvm.lifetime.start.p0(i64 4, ptr %5) #8
  call void @llvm.lifetime.start.p0(i64 8, ptr %6) #8
  %7 = load ptr, ptr %3, align 8
  %8 = load ptr, ptr %4, align 8
  %9 = getelementptr inbounds nuw %struct.JsonIsPredicate, ptr %8, i32 0, i32 1
  %10 = load ptr, ptr %9, align 8
  %11 = load ptr, ptr %4, align 8
  %12 = getelementptr inbounds nuw %struct.JsonIsPredicate, ptr %11, i32 0, i32 2
  %13 = load ptr, ptr %12, align 8
  %14 = call ptr @transformJsonParseArg(ptr noundef %7, ptr noundef %10, ptr noundef %13, ptr noundef %5)
  store ptr %14, ptr %6, align 8
  %15 = load i32, ptr %5, align 4
  %16 = icmp ne i32 %15, 25
  br i1 %16, label %17, label %37

17:                                               ; preds = %2
  %18 = load i32, ptr %5, align 4
  %19 = icmp ne i32 %18, 114
  br i1 %19, label %20, label %37

20:                                               ; preds = %17
  %21 = load i32, ptr %5, align 4
  %22 = icmp ne i32 %21, 3802
  br i1 %22, label %23, label %37

23:                                               ; preds = %20
  br label %24

24:                                               ; preds = %23
  br i1 true, label %25, label %27

25:                                               ; preds = %24
  %26 = call zeroext i1 @errstart_cold(i32 noundef 21, ptr noundef null) #9
  br i1 %26, label %29, label %34

27:                                               ; preds = %24
  %28 = call zeroext i1 @errstart(i32 noundef 21, ptr noundef null)
  br i1 %28, label %29, label %34

29:                                               ; preds = %27, %25
  %30 = call i32 @errcode(i32 noundef 67141764)
  %31 = load i32, ptr %5, align 4
  %32 = call ptr @format_type_be(i32 noundef %31)
  %33 = call i32 (ptr, ...) @errmsg(ptr noundef @.str.155, ptr noundef %32)
  call void @errfinish(ptr noundef @.str.41, i32 noundef 4101, ptr noundef @__func__.transformJsonIsPredicate)
  br label %34

34:                                               ; preds = %29, %27, %25
  unreachable

35:                                               ; No predecessors!
  br label %36

36:                                               ; preds = %35
  br label %37

37:                                               ; preds = %36, %20, %17, %2
  %38 = load ptr, ptr %6, align 8
  %39 = load ptr, ptr %4, align 8
  %40 = getelementptr inbounds nuw %struct.JsonIsPredicate, ptr %39, i32 0, i32 3
  %41 = load i32, ptr %40, align 8
  %42 = load ptr, ptr %4, align 8
  %43 = getelementptr inbounds nuw %struct.JsonIsPredicate, ptr %42, i32 0, i32 4
  %44 = load i8, ptr %43, align 4, !range !6, !noundef !7
  %45 = trunc i8 %44 to i1
  %46 = load ptr, ptr %4, align 8
  %47 = getelementptr inbounds nuw %struct.JsonIsPredicate, ptr %46, i32 0, i32 5
  %48 = load i32, ptr %47, align 8
  %49 = call ptr @makeJsonIsPredicate(ptr noundef %38, ptr noundef null, i32 noundef %41, i1 noundef zeroext %45, i32 noundef %48)
  call void @llvm.lifetime.end.p0(i64 8, ptr %6) #8
  call void @llvm.lifetime.end.p0(i64 4, ptr %5) #8
  ret ptr %49
}