; Function Attrs: nounwind uwtable
define internal fastcc ptr @transformJsonIsPredicate(ptr noundef %0, ptr noundef nonnull readonly captures(none) %1) unnamed_addr #0 {
  %3 = alloca i32, align 4
  call void @llvm.lifetime.start.p0(i64 4, ptr nonnull %3) #9
  %4 = getelementptr inbounds nuw i8, ptr %1, i64 8
  %5 = load ptr, ptr %4, align 8
  %6 = getelementptr inbounds nuw i8, ptr %1, i64 16
  %7 = load ptr, ptr %6, align 8
  %8 = call fastcc ptr @transformJsonParseArg(ptr noundef %0, ptr noundef %5, ptr noundef %7, ptr noundef %3)
  %9 = load i32, ptr %3, align 4
  switch i32 %9, label %10 [
    i32 3802, label %15
    i32 114, label %15
    i32 25, label %15
  ]

10:                                               ; preds = %2
  %11 = tail call zeroext i1 @errstart_cold(i32 noundef 21, ptr noundef null) #10
  tail call void @llvm.assume(i1 %11)
  %12 = tail call i32 @errcode(i32 noundef 67141764) #9
  %13 = tail call ptr @format_type_be(i32 noundef %9) #9
  %14 = tail call i32 (ptr, ...) @errmsg(ptr noundef nonnull @.str.155, ptr noundef %13) #9
  tail call void @errfinish(ptr noundef nonnull @.str.41, i32 noundef 4101, ptr noundef nonnull @__func__.transformJsonIsPredicate) #9
  unreachable

15:                                               ; preds = %2, %2, %2
  %16 = getelementptr inbounds nuw i8, ptr %1, i64 24
  %17 = load i32, ptr %16, align 8
  %18 = getelementptr inbounds nuw i8, ptr %1, i64 28
  %19 = load i8, ptr %18, align 4, !range !4, !noundef !5
  %20 = trunc nuw i8 %19 to i1
  %21 = getelementptr inbounds nuw i8, ptr %1, i64 32
  %22 = load i32, ptr %21, align 8
  %23 = tail call ptr @makeJsonIsPredicate(ptr noundef %8, ptr noundef null, i32 noundef %17, i1 noundef zeroext %20, i32 noundef %22) #9
  call void @llvm.lifetime.end.p0(i64 4, ptr nonnull %3) #9
  ret ptr %23
}